; Function Attrs: mustprogress nounwind willreturn uwtable
define i32 @Gia_SweeperProbeCreate(ptr noundef readonly captures(none) %0, i32 noundef %1) local_unnamed_addr #8 {
  %3 = getelementptr inbounds nuw i8, ptr %0, i64 768
  %4 = load ptr, ptr %3, align 8, !tbaa !10
  %5 = getelementptr inbounds nuw i8, ptr %4, i64 16
  %6 = load ptr, ptr %5, align 8, !tbaa !35
  %7 = getelementptr i8, ptr %6, i64 4
  %.val = load i32, ptr %7, align 4, !tbaa !3
  %8 = load i32, ptr %6, align 8, !tbaa !33
  %9 = icmp eq i32 %.val, %8
  br i1 %9, label %10, label %.Vec_IntGrow.exit10_crit_edge.i

.Vec_IntGrow.exit10_crit_edge.i:                  ; preds = %2
  %.phi.trans.insert.i = getelementptr inbounds nuw i8, ptr %6, i64 8
  %.pre.i = load ptr, ptr %.phi.trans.insert.i, align 8, !tbaa !34
  br label %Vec_IntPush.exit

10:                                               ; preds = %2
  %11 = icmp slt i32 %.val, 16
  br i1 %11, label %12, label %20

12:                                               ; preds = %10
  %13 = getelementptr inbounds nuw i8, ptr %6, i64 8
  %14 = load ptr, ptr %13, align 8, !tbaa !34
  %.not9.i.i = icmp eq ptr %14, null
  br i1 %.not9.i.i, label %17, label %15

15:                                               ; preds = %12
  %16 = tail call dereferenceable_or_null(64) ptr @realloc(ptr noundef nonnull %14, i64 noundef 64) #26
  br label %Vec_IntGrow.exit.i

17:                                               ; preds = %12
  %18 = tail call noalias dereferenceable_or_null(64) ptr @malloc(i64 noundef 64) #25
  br label %Vec_IntGrow.exit.i

Vec_IntGrow.exit.i:                               ; preds = %17, %15
  %19 = phi ptr [ %16, %15 ], [ %18, %17 ]
  store ptr %19, ptr %13, align 8, !tbaa !34
  store i32 16, ptr %6, align 8, !tbaa !33
  br label %Vec_IntPush.exit

20:                                               ; preds = %10
  %21 = shl nuw nsw i32 %.val, 1
  %22 = getelementptr inbounds nuw i8, ptr %6, i64 8
  %23 = load ptr, ptr %22, align 8, !tbaa !34
  %.not9.i9.i = icmp eq ptr %23, null
  %24 = zext nneg i32 %21 to i64
  %25 = shl nuw nsw i64 %24, 2
  br i1 %.not9.i9.i, label %28, label %26

26:                                               ; preds = %20
  %27 = tail call ptr @realloc(ptr noundef nonnull %23, i64 noundef %25) #26
  br label %30

28:                                               ; preds = %20
  %29 = tail call noalias ptr @malloc(i64 noundef %25) #25
  br label %30

30:                                               ; preds = %28, %26
  %31 = phi ptr [ %27, %26 ], [ %29, %28 ]
  store ptr %31, ptr %22, align 8, !tbaa !34
  store i32 %21, ptr %6, align 8, !tbaa !33
  br label %Vec_IntPush.exit

Vec_IntPush.exit:                                 ; preds = %.Vec_IntGrow.exit10_crit_edge.i, %Vec_IntGrow.exit.i, %30
  %32 = phi ptr [ %.pre.i, %.Vec_IntGrow.exit10_crit_edge.i ], [ %31, %30 ], [ %19, %Vec_IntGrow.exit.i ]
  %33 = load i32, ptr %7, align 4, !tbaa !3
  %34 = add nsw i32 %33, 1
  store i32 %34, ptr %7, align 4, !tbaa !3
  %35 = sext i32 %33 to i64
  %36 = getelementptr inbounds i32, ptr %32, i64 %35
  store i32 %1, ptr %36, align 4, !tbaa !44
  ret i32 %.val
}